target datalayout = "e-m:e-p270:32:32-p271:32:32-p272:64:64-i64:64-i128:128-f80:128-n8:16:32:64-S128"
target triple = "x86_64-pc-linux-gnu"

%struct.saucy = type { i32, ptr, ptr, ptr, ptr, %struct.coloring, %struct.coloring, ptr, ptr, ptr, ptr, ptr, i32, i32, ptr, i32, ptr, ptr, ptr, ptr, ptr, ptr, ptr, i32, i32, ptr, i32, ptr, i32, i32, ptr, ptr, ptr, ptr, ptr, ptr, ptr, ptr, ptr, ptr, i32, ptr, ptr, ptr, i32, ptr, i32, ptr, ptr, ptr, ptr, i32, ptr, ptr, i32, ptr, ptr, ptr, ptr, ptr, ptr, ptr, ptr, ptr, ptr, ptr, ptr, ptr, ptr, ptr, ptr, ptr, ptr, ptr, ptr, ptr, ptr, double, i32, i32, i32, ptr, ptr, ptr, ptr }
%struct.coloring = type { ptr, ptr, ptr, ptr }
%struct.Abc_Ntk_t_ = type { i32, i32, ptr, ptr, ptr, ptr, ptr, ptr, ptr, ptr, ptr, ptr, ptr, [11 x i32], i32, i32, i32, i32, ptr, i32, ptr, ptr, i32, i32, i32, double, i32, %struct.Vec_Int_t_, ptr, ptr, ptr, ptr, ptr, float, i32, ptr, ptr, ptr, ptr, ptr, ptr, ptr, ptr, ptr, ptr, ptr, ptr, ptr, ptr, ptr, ptr, ptr, ptr, ptr, ptr, ptr }
%struct.Vec_Int_t_ = type { i32, i32, ptr }
%struct.Vec_Ptr_t_ = type { i32, i32, ptr }
%struct.sim_result = type { ptr, ptr, i32, i32, double }

; Function Attrs: nounwind uwtable
define internal void @Vec_PtrGrow(ptr noundef %0, i32 noundef %1) #0 {
  %3 = alloca ptr, align 8
  %4 = alloca i32, align 4
  store ptr %0, ptr %3, align 8
  store i32 %1, ptr %4, align 4
  %5 = load ptr, ptr %3, align 8
  %6 = getelementptr inbounds %struct.Vec_Ptr_t_, ptr %5, i32 0, i32 0
  %7 = load i32, ptr %6, align 8
  %8 = load i32, ptr %4, align 4
  %9 = icmp sge i32 %7, %8
  br i1 %9, label %10, label %11

10:                                               ; preds = %2
  br label %36

11:                                               ; preds = %2
  %12 = load ptr, ptr %3, align 8
  %13 = getelementptr inbounds %struct.Vec_Ptr_t_, ptr %12, i32 0, i32 2
  %14 = load ptr, ptr %13, align 8
  %15 = icmp ne ptr %14, null
  br i1 %15, label %16, label %24

16:                                               ; preds = %11
  %17 = load ptr, ptr %3, align 8
  %18 = getelementptr inbounds %struct.Vec_Ptr_t_, ptr %17, i32 0, i32 2
  %19 = load ptr, ptr %18, align 8
  %20 = load i32, ptr %4, align 4
  %21 = sext i32 %20 to i64
  %22 = mul i64 8, %21
  %23 = call ptr @realloc(ptr noundef %19, i64 noundef %22) #15
  br label %29

24:                                               ; preds = %11
  %25 = load i32, ptr %4, align 4
  %26 = sext i32 %25 to i64
  %27 = mul i64 8, %26
  %28 = call noalias ptr @malloc(i64 noundef %27) #11
  br label %29

29:                                               ; preds = %24, %16
  %30 = phi ptr [ %23, %16 ], [ %28, %24 ]
  %31 = load ptr, ptr %3, align 8
  %32 = getelementptr inbounds %struct.Vec_Ptr_t_, ptr %31, i32 0, i32 2
  store ptr %30, ptr %32, align 8
  %33 = load i32, ptr %4, align 4
  %34 = load ptr, ptr %3, align 8
  %35 = getelementptr inbounds %struct.Vec_Ptr_t_, ptr %34, i32 0, i32 0
  store i32 %33, ptr %35, align 8
  br label %36

36:                                               ; preds = %29, %10
  ret void
}

; Function Attrs: nounwind uwtable
define internal void @bumpActivity(ptr noundef %0, ptr noundef %1) #0 {
  %3 = alloca ptr, align 8
  %4 = alloca ptr, align 8
  %5 = alloca i32, align 4
  %6 = alloca ptr, align 8
  store ptr %0, ptr %3, align 8
  store ptr %1, ptr %4, align 8
  %7 = load ptr, ptr %3, align 8
  %8 = getelementptr inbounds %struct.saucy, ptr %7, i32 0, i32 77
  %9 = load double, ptr %8, align 8
  %10 = load ptr, ptr %4, align 8
  %11 = getelementptr inbounds %struct.sim_result, ptr %10, i32 0, i32 4
  %12 = load double, ptr %11, align 8
  %13 = fadd double %12, %9
  store double %13, ptr %11, align 8
  %14 = fcmp ogt double %13, 1.000000e+20
  br i1 %14, label %15, label %41

15:                                               ; preds = %2
  store i32 0, ptr %5, align 4
  br label %16

16:                                               ; preds = %33, %15
  %17 = load i32, ptr %5, align 4
  %18 = load ptr, ptr %3, align 8
  %19 = getelementptr inbounds %struct.saucy, ptr %18, i32 0, i32 76
  %20 = load ptr, ptr %19, align 8
  %21 = call i32 @Vec_PtrSize(ptr noundef %20)
  %22 = icmp slt i32 %17, %21
  br i1 %22, label %23, label %36

23:                                               ; preds = %16
  %24 = load ptr, ptr %3, align 8
  %25 = getelementptr inbounds %struct.saucy, ptr %24, i32 0, i32 76
  %26 = load ptr, ptr %25, align 8
  %27 = load i32, ptr %5, align 4
  %28 = call ptr @Vec_PtrEntry(ptr noundef %26, i32 noundef %27)
  store ptr %28, ptr %6, align 8
  %29 = load ptr, ptr %6, align 8
  %30 = getelementptr inbounds %struct.sim_result, ptr %29, i32 0, i32 4
  %31 = load double, ptr %30, align 8
  %32 = fmul double %31, 0x3BC79CA10C924223
  store double %32, ptr %30, align 8
  br label %33

33:                                               ; preds = %23
  %34 = load i32, ptr %5, align 4
  %35 = add nsw i32 %34, 1
  store i32 %35, ptr %5, align 4
  br label %16, !llvm.loop !108

36:                                               ; preds = %16
  %37 = load ptr, ptr %3, align 8
  %38 = getelementptr inbounds %struct.saucy, ptr %37, i32 0, i32 77
  %39 = load double, ptr %38, align 8
  %40 = fmul double %39, 0x3BC79CA10C924223
  store double %40, ptr %38, align 8
  br label %41

41:                                               ; preds = %36, %2
  ret void
}

; Function Attrs: nounwind uwtable
define internal void @Vec_PtrPush(ptr noundef %0, ptr noundef %1) #0 {
  %3 = alloca ptr, align 8
  %4 = alloca ptr, align 8
  store ptr %0, ptr %3, align 8
  store ptr %1, ptr %4, align 8
  %5 = load ptr, ptr %3, align 8
  %6 = getelementptr inbounds %struct.Vec_Ptr_t_, ptr %5, i32 0, i32 1
  %7 = load i32, ptr %6, align 4
  %8 = load ptr, ptr %3, align 8
  %9 = getelementptr inbounds %struct.Vec_Ptr_t_, ptr %8, i32 0, i32 0
  %10 = load i32, ptr %9, align 8
  %11 = icmp eq i32 %7, %10
  br i1 %11, label %12, label %26

12:                                               ; preds = %2
  %13 = load ptr, ptr %3, align 8
  %14 = getelementptr inbounds %struct.Vec_Ptr_t_, ptr %13, i32 0, i32 0
  %15 = load i32, ptr %14, align 8
  %16 = icmp slt i32 %15, 16
  br i1 %16, label %17, label %19

17:                                               ; preds = %12
  %18 = load ptr, ptr %3, align 8
  call void @Vec_PtrGrow(ptr noundef %18, i32 noundef 16)
  br label %25

19:                                               ; preds = %12
  %20 = load ptr, ptr %3, align 8
  %21 = load ptr, ptr %3, align 8
  %22 = getelementptr inbounds %struct.Vec_Ptr_t_, ptr %21, i32 0, i32 0
  %23 = load i32, ptr %22, align 8
  %24 = mul nsw i32 2, %23
  call void @Vec_PtrGrow(ptr noundef %20, i32 noundef %24)
  br label %25

25:                                               ; preds = %19, %17
  br label %26

26:                                               ; preds = %25, %2
  %27 = load ptr, ptr %4, align 8
  %28 = load ptr, ptr %3, align 8
  %29 = getelementptr inbounds %struct.Vec_Ptr_t_, ptr %28, i32 0, i32 2
  %30 = load ptr, ptr %29, align 8
  %31 = load ptr, ptr %3, align 8
  %32 = getelementptr inbounds %struct.Vec_Ptr_t_, ptr %31, i32 0, i32 1
  %33 = load i32, ptr %32, align 4
  %34 = add nsw i32 %33, 1
  store i32 %34, ptr %32, align 4
  %35 = sext i32 %33 to i64
  %36 = getelementptr inbounds ptr, ptr %30, i64 %35
  store ptr %27, ptr %36, align 8
  ret void
}

; Function Attrs: nounwind uwtable
define internal ptr @Vec_PtrEntry(ptr noundef %0, i32 noundef %1) #0 {
  %3 = alloca ptr, align 8
  %4 = alloca i32, align 4
  store ptr %0, ptr %3, align 8
  store i32 %1, ptr %4, align 4
  %5 = load ptr, ptr %3, align 8
  %6 = getelementptr inbounds %struct.Vec_Ptr_t_, ptr %5, i32 0, i32 2
  %7 = load ptr, ptr %6, align 8
  %8 = load i32, ptr %4, align 4
  %9 = sext i32 %8 to i64
  %10 = getelementptr inbounds ptr, ptr %7, i64 %9
  %11 = load ptr, ptr %10, align 8
  ret ptr %11
}

; Function Attrs: nounwind uwtable
define internal i32 @Vec_PtrSize(ptr noundef %0) #0 {
  %2 = alloca ptr, align 8
  store ptr %0, ptr %2, align 8
  %3 = load ptr, ptr %2, align 8
  %4 = getelementptr inbounds %struct.Vec_Ptr_t_, ptr %3, i32 0, i32 1
  %5 = load i32, ptr %4, align 4
  ret i32 %5
}

; Function Attrs: nounwind uwtable
define internal i32 @Abc_NtkPiNum(ptr noundef %0) #0 {
  %2 = alloca ptr, align 8
  store ptr %0, ptr %2, align 8
  %3 = load ptr, ptr %2, align 8
  %4 = getelementptr inbounds %struct.Abc_Ntk_t_, ptr %3, i32 0, i32 6
  %5 = load ptr, ptr %4, align 8
  %6 = call i32 @Vec_PtrSize(ptr noundef %5)
  ret i32 %6
}

; Function Attrs: nounwind uwtable
define internal i32 @add_conterexample(ptr noundef %0, ptr noundef %1) #0 {
  %3 = alloca i32, align 4
  %4 = alloca ptr, align 8
  %5 = alloca ptr, align 8
  %6 = alloca i32, align 4
  %7 = alloca i32, align 4
  %8 = alloca ptr, align 8
  store ptr %0, ptr %4, align 8
  store ptr %1, ptr %5, align 8
  %9 = load ptr, ptr %4, align 8
  %10 = getelementptr inbounds %struct.saucy, ptr %9, i32 0, i32 61
  %11 = load ptr, ptr %10, align 8
  %12 = call i32 @Abc_NtkPiNum(ptr noundef %11)
  store i32 %12, ptr %7, align 4
  %13 = load ptr, ptr %5, align 8
  %14 = getelementptr inbounds %struct.sim_result, ptr %13, i32 0, i32 2
  store i32 0, ptr %14, align 8
  store i32 0, ptr %6, align 4
  br label %15

15:                                               ; preds = %49, %2
  %16 = load i32, ptr %6, align 4
  %17 = load i32, ptr %7, align 4
  %18 = icmp slt i32 %16, %17
  br i1 %18, label %19, label %52

19:                                               ; preds = %15
  %20 = load ptr, ptr %5, align 8
  %21 = getelementptr inbounds %struct.sim_result, ptr %20, i32 0, i32 0
  %22 = load ptr, ptr %21, align 8
  %23 = load i32, ptr %6, align 4
  %24 = sext i32 %23 to i64
  %25 = getelementptr inbounds i32, ptr %22, i64 %24
  %26 = load i32, ptr %25, align 4
  %27 = icmp ne i32 %26, 0
  br i1 %27, label %28, label %48

28:                                               ; preds = %19
  %29 = load ptr, ptr %5, align 8
  %30 = getelementptr inbounds %struct.sim_result, ptr %29, i32 0, i32 0
  %31 = load ptr, ptr %30, align 8
  %32 = load i32, ptr %6, align 4
  %33 = sext i32 %32 to i64
  %34 = getelementptr inbounds i32, ptr %31, i64 %33
  %35 = load i32, ptr %34, align 4
  %36 = load i32, ptr %6, align 4
  %37 = mul nsw i32 %35, %36
  %38 = load i32, ptr %6, align 4
  %39 = mul nsw i32 %37, %38
  %40 = load ptr, ptr %5, align 8
  %41 = getelementptr inbounds %struct.sim_result, ptr %40, i32 0, i32 2
  %42 = load i32, ptr %41, align 8
  %43 = add nsw i32 %42, %39
  store i32 %43, ptr %41, align 8
  %44 = load ptr, ptr %5, align 8
  %45 = getelementptr inbounds %struct.sim_result, ptr %44, i32 0, i32 2
  %46 = load i32, ptr %45, align 8
  %47 = xor i32 %46, 43981
  store i32 %47, ptr %45, align 8
  br label %48

48:                                               ; preds = %28, %19
  br label %49

49:                                               ; preds = %48
  %50 = load i32, ptr %6, align 4
  %51 = add nsw i32 %50, 1
  store i32 %51, ptr %6, align 4
  br label %15, !llvm.loop !104

52:                                               ; preds = %15
  store i32 0, ptr %6, align 4
  br label %53

53:                                               ; preds = %75, %52
  %54 = load i32, ptr %6, align 4
  %55 = load ptr, ptr %4, align 8
  %56 = getelementptr inbounds %struct.saucy, ptr %55, i32 0, i32 76
  %57 = load ptr, ptr %56, align 8
  %58 = call i32 @Vec_PtrSize(ptr noundef %57)
  %59 = icmp slt i32 %54, %58
  br i1 %59, label %60, label %78

60:                                               ; preds = %53
  %61 = load ptr, ptr %4, align 8
  %62 = getelementptr inbounds %struct.saucy, ptr %61, i32 0, i32 76
  %63 = load ptr, ptr %62, align 8
  %64 = load i32, ptr %6, align 4
  %65 = call ptr @Vec_PtrEntry(ptr noundef %63, i32 noundef %64)
  store ptr %65, ptr %8, align 8
  %66 = load ptr, ptr %8, align 8
  %67 = getelementptr inbounds %struct.sim_result, ptr %66, i32 0, i32 2
  %68 = load i32, ptr %67, align 8
  %69 = load ptr, ptr %5, align 8
  %70 = getelementptr inbounds %struct.sim_result, ptr %69, i32 0, i32 2
  %71 = load i32, ptr %70, align 8
  %72 = icmp eq i32 %68, %71
  br i1 %72, label %73, label %74

73:                                               ; preds = %60
  store i32 0, ptr %3, align 4
  br label %85

74:                                               ; preds = %60
  br label %75

75:                                               ; preds = %74
  %76 = load i32, ptr %6, align 4
  %77 = add nsw i32 %76, 1
  store i32 %77, ptr %6, align 4
  br label %53, !llvm.loop !105

78:                                               ; preds = %53
  %79 = load ptr, ptr %4, align 8
  %80 = getelementptr inbounds %struct.saucy, ptr %79, i32 0, i32 76
  %81 = load ptr, ptr %80, align 8
  %82 = load ptr, ptr %5, align 8
  call void @Vec_PtrPush(ptr noundef %81, ptr noundef %82)
  %83 = load ptr, ptr %4, align 8
  %84 = load ptr, ptr %5, align 8
  call void @bumpActivity(ptr noundef %83, ptr noundef %84)
  store i32 1, ptr %3, align 4
  br label %85

85:                                               ; preds = %78, %73
  %86 = load i32, ptr %3, align 4
  ret i32 %86
}