; Function Attrs: nounwind uwtable
define internal fastcc void @add_conterexample(ptr noundef captures(none) %0, ptr noundef initializes((16, 20)) %1) unnamed_addr #0 {
  %3 = getelementptr inbounds nuw i8, ptr %0, i64 512
  %4 = load ptr, ptr %3, align 8
  %5 = getelementptr i8, ptr %4, i64 40
  %.val27 = load ptr, ptr %5, align 8
  %6 = getelementptr i8, ptr %.val27, i64 4
  %.val27.val = load i32, ptr %6, align 4
  %7 = getelementptr inbounds nuw i8, ptr %1, i64 16
  store i32 0, ptr %7, align 8
  %8 = icmp sgt i32 %.val27.val, 0
  br i1 %8, label %.lr.ph, label %.preheader

.lr.ph:                                           ; preds = %2
  %9 = load ptr, ptr %1, align 8
  %wide.trip.count = zext nneg i32 %.val27.val to i64
  br label %16

.preheader:                                       ; preds = %26, %2
  %10 = phi i32 [ 0, %2 ], [ %27, %26 ]
  %11 = getelementptr inbounds nuw i8, ptr %0, i64 632
  %12 = load ptr, ptr %11, align 8
  %13 = getelementptr i8, ptr %12, i64 4
  %.val = load i32, ptr %13, align 4
  %14 = icmp sgt i32 %.val, 0
  br i1 %14, label %.lr.ph37, label %._crit_edge

.lr.ph37:                                         ; preds = %.preheader
  %15 = getelementptr i8, ptr %12, i64 8
  %.val26 = load ptr, ptr %15, align 8
  %wide.trip.count44 = zext nneg i32 %.val to i64
  br label %29

16:                                               ; preds = %.lr.ph, %26
  %17 = phi i32 [ 0, %.lr.ph ], [ %27, %26 ]
  %indvars.iv = phi i64 [ 0, %.lr.ph ], [ %indvars.iv.next, %26 ]
  %18 = getelementptr inbounds nuw i32, ptr %9, i64 %indvars.iv
  %19 = load i32, ptr %18, align 4
  %.not = icmp eq i32 %19, 0
  br i1 %.not, label %26, label %20

20:                                               ; preds = %16
  %21 = trunc nuw nsw i64 %indvars.iv to i32
  %22 = mul i32 %21, %21
  %23 = mul i32 %22, %19
  %24 = add nsw i32 %17, %23
  %25 = xor i32 %24, 43981
  store i32 %25, ptr %7, align 8
  br label %26

26:                                               ; preds = %16, %20
  %27 = phi i32 [ %17, %16 ], [ %25, %20 ]
  %indvars.iv.next = add nuw nsw i64 %indvars.iv, 1
  %exitcond.not = icmp eq i64 %indvars.iv.next, %wide.trip.count
  br i1 %exitcond.not, label %.preheader, label %16, !llvm.loop !129

28:                                               ; preds = %29
  %indvars.iv.next42 = add nuw nsw i64 %indvars.iv41, 1
  %exitcond45.not = icmp eq i64 %indvars.iv.next42, %wide.trip.count44
  br i1 %exitcond45.not, label %._crit_edge, label %29, !llvm.loop !130

29:                                               ; preds = %.lr.ph37, %28
  %indvars.iv41 = phi i64 [ 0, %.lr.ph37 ], [ %indvars.iv.next42, %28 ]
  %30 = getelementptr inbounds nuw ptr, ptr %.val26, i64 %indvars.iv41
  %31 = load ptr, ptr %30, align 8
  %32 = getelementptr inbounds nuw i8, ptr %31, i64 16
  %33 = load i32, ptr %32, align 8
  %34 = icmp eq i32 %33, %10
  br i1 %34, label %bumpActivity.exit, label %28

._crit_edge:                                      ; preds = %28, %.preheader
  %35 = load i32, ptr %12, align 8
  %36 = icmp eq i32 %.val, %35
  br i1 %36, label %37, label %.Vec_PtrGrow.exit11_crit_edge.i

.Vec_PtrGrow.exit11_crit_edge.i:                  ; preds = %._crit_edge
  %.phi.trans.insert.i = getelementptr inbounds nuw i8, ptr %12, i64 8
  %.pre.i = load ptr, ptr %.phi.trans.insert.i, align 8
  br label %Vec_PtrPush.exit

37:                                               ; preds = %._crit_edge
  %38 = icmp slt i32 %.val, 16
  br i1 %38, label %39, label %47

39:                                               ; preds = %37
  %40 = getelementptr inbounds nuw i8, ptr %12, i64 8
  %41 = load ptr, ptr %40, align 8
  %.not9.i.i = icmp eq ptr %41, null
  br i1 %.not9.i.i, label %44, label %42

42:                                               ; preds = %39
  %43 = tail call dereferenceable_or_null(128) ptr @realloc(ptr noundef nonnull %41, i64 noundef 128) #28
  br label %Vec_PtrGrow.exit.i

44:                                               ; preds = %39
  %45 = tail call noalias dereferenceable_or_null(128) ptr @malloc(i64 noundef 128) #26
  br label %Vec_PtrGrow.exit.i

Vec_PtrGrow.exit.i:                               ; preds = %44, %42
  %46 = phi ptr [ %43, %42 ], [ %45, %44 ]
  store ptr %46, ptr %40, align 8
  store i32 16, ptr %12, align 8
  br label %Vec_PtrPush.exit

47:                                               ; preds = %37
  %48 = shl nuw nsw i32 %.val, 1
  %49 = getelementptr inbounds nuw i8, ptr %12, i64 8
  %50 = load ptr, ptr %49, align 8
  %.not9.i10.i = icmp eq ptr %50, null
  %51 = zext nneg i32 %48 to i64
  %52 = shl nuw nsw i64 %51, 3
  br i1 %.not9.i10.i, label %55, label %53

53:                                               ; preds = %47
  %54 = tail call ptr @realloc(ptr noundef nonnull %50, i64 noundef %52) #28
  br label %57

55:                                               ; preds = %47
  %56 = tail call noalias ptr @malloc(i64 noundef %52) #26
  br label %57

57:                                               ; preds = %55, %53
  %58 = phi ptr [ %54, %53 ], [ %56, %55 ]
  store ptr %58, ptr %49, align 8
  store i32 %48, ptr %12, align 8
  br label %Vec_PtrPush.exit

Vec_PtrPush.exit:                                 ; preds = %.Vec_PtrGrow.exit11_crit_edge.i, %Vec_PtrGrow.exit.i, %57
  %59 = phi ptr [ %.pre.i, %.Vec_PtrGrow.exit11_crit_edge.i ], [ %58, %57 ], [ %46, %Vec_PtrGrow.exit.i ]
  %60 = load i32, ptr %13, align 4
  %61 = add nsw i32 %60, 1
  store i32 %61, ptr %13, align 4
  %62 = sext i32 %60 to i64
  %63 = getelementptr inbounds ptr, ptr %59, i64 %62
  store ptr %1, ptr %63, align 8
  %64 = getelementptr inbounds nuw i8, ptr %0, i64 640
  %65 = load double, ptr %64, align 8
  %66 = getelementptr inbounds nuw i8, ptr %1, i64 24
  %67 = load double, ptr %66, align 8
  %68 = fadd double %65, %67
  store double %68, ptr %66, align 8
  %69 = fcmp ogt double %68, 1.000000e+20
  br i1 %69, label %.preheader.i, label %bumpActivity.exit

.preheader.i:                                     ; preds = %Vec_PtrPush.exit
  %70 = load ptr, ptr %11, align 8
  %71 = getelementptr i8, ptr %70, i64 4
  %.val9.i = load i32, ptr %71, align 4
  %72 = icmp sgt i32 %.val9.i, 0
  br i1 %72, label %.lr.ph.i, label %._crit_edge.i

.lr.ph.i:                                         ; preds = %.preheader.i, %.lr.ph.i
  %indvars.iv.i = phi i64 [ %indvars.iv.next.i, %.lr.ph.i ], [ 0, %.preheader.i ]
  %73 = phi ptr [ %80, %.lr.ph.i ], [ %70, %.preheader.i ]
  %74 = getelementptr i8, ptr %73, i64 8
  %.val8.i = load ptr, ptr %74, align 8
  %75 = getelementptr inbounds nuw ptr, ptr %.val8.i, i64 %indvars.iv.i
  %76 = load ptr, ptr %75, align 8
  %77 = getelementptr inbounds nuw i8, ptr %76, i64 24
  %78 = load double, ptr %77, align 8
  %79 = fmul double %78, 0x3BC79CA10C924223
  store double %79, ptr %77, align 8
  %indvars.iv.next.i = add nuw nsw i64 %indvars.iv.i, 1
  %80 = load ptr, ptr %11, align 8
  %81 = getelementptr i8, ptr %80, i64 4
  %.val.i = load i32, ptr %81, align 4
  %82 = sext i32 %.val.i to i64
  %83 = icmp slt i64 %indvars.iv.next.i, %82
  br i1 %83, label %.lr.ph.i, label %._crit_edge.i, !llvm.loop !41

._crit_edge.i:                                    ; preds = %.lr.ph.i, %.preheader.i
  %84 = load double, ptr %64, align 8
  %85 = fmul double %84, 0x3BC79CA10C924223
  store double %85, ptr %64, align 8
  br label %bumpActivity.exit

bumpActivity.exit:                                ; preds = %29, %._crit_edge.i, %Vec_PtrPush.exit
  ret void
}